; Function Attrs: nounwind uwtable
define dso_local i64 @WriteInt(ptr noundef %0, i32 noundef %1) local_unnamed_addr #0 {
  %3 = icmp slt i32 %1, 0
  %4 = getelementptr inbounds nuw i8, ptr %0, i64 248
  %5 = load ptr, ptr %4, align 8
  br i1 %3, label %6, label %9

6:                                                ; preds = %2
  %7 = tail call i32 %5(ptr noundef %0, i32 noundef 1) #22
  %8 = sub i32 0, %1
  br label %11

9:                                                ; preds = %2
  %10 = tail call i32 %5(ptr noundef %0, i32 noundef 0) #22
  br label %11

11:                                               ; preds = %9, %6
  %.013 = phi i32 [ %8, %6 ], [ %1, %9 ]
  %12 = getelementptr inbounds nuw i8, ptr %0, i64 128
  %13 = load i64, ptr %12, align 8
  %.not = icmp eq i64 %13, 0
  br i1 %.not, label %._crit_edge, label %.lr.ph

.lr.ph:                                           ; preds = %11
  %14 = getelementptr inbounds nuw i8, ptr %0, i64 248
  br label %15

15:                                               ; preds = %.lr.ph, %15
  %.018 = phi i32 [ 0, %.lr.ph ], [ %20, %15 ]
  %.117 = phi i32 [ %.013, %.lr.ph ], [ %19, %15 ]
  %16 = load ptr, ptr %14, align 8
  %17 = and i32 %.117, 255
  %18 = tail call i32 %16(ptr noundef nonnull %0, i32 noundef %17) #22
  %19 = ashr i32 %.117, 8
  %20 = add i32 %.018, 1
  %21 = sext i32 %20 to i64
  %22 = load i64, ptr %12, align 8
  %23 = icmp ugt i64 %22, %21
  br i1 %23, label %15, label %._crit_edge.loopexit, !llvm.loop !47

._crit_edge.loopexit:                             ; preds = %15
  %24 = add i64 %22, 1
  br label %._crit_edge

._crit_edge:                                      ; preds = %._crit_edge.loopexit, %11
  %.lcssa = phi i64 [ 1, %11 ], [ %24, %._crit_edge.loopexit ]
  ret i64 %.lcssa
}